(lp0
(i__main__
STUDENT
p1
(dp2
S'PERCENT'
p3
I98
sS'RNO'
p4
I1
sS'NAME'
p5
S'Su'
p6
sS'STREAM'
p7
S'SCIENCE'
p8
sba(i__main__
STUDENT
p9
(dp10
g3
I11
sg4
I2
sg5
S'qw'
p11
sg7
S'HUMANTIES'
p12
sba(i__main__
STUDENT
p13
(dp14
g3
I100
sg4
I4
sg5
S'Ja'
p15
sg7
S'HUMANITIES'
p16
sba.